Certificate:
    Data:
        Version: 3 (0x2)
        Serial Number:
            35:76:c8:c7:a2:49:0a:24:75:e9:4c:3a:67:e5:9d:f3:60:49:29:9d
        Signature Algorithm: sha256WithRSAEncryption
        Issuer: CN=QUIC Server Root CA
        Validity
            Not Before: Nov 12 23:21:55 2025 GMT
            Not After : Nov 15 23:21:55 2025 GMT
        Subject: CN=QUIC Server Root CA
        Subject Public Key Info:
            Public Key Algorithm: rsaEncryption
                Public-Key: (2048 bit)
                Modulus:
                    00:c5:e8:cd:61:41:5a:80:e5:fb:1d:79:d5:93:a7:
                    c7:24:8d:99:4c:6f:93:1b:fe:a9:da:d4:1b:95:35:
                    55:41:d0:42:70:82:c8:43:f6:ca:0e:17:27:e1:9b:
                    d5:42:e6:d9:3d:65:e8:dc:3a:ce:48:49:28:d7:a5:
                    86:1f:5d:cd:77:8d:7b:bb:5f:e7:4f:51:c7:ad:63:
                    bc:b0:fb:38:f0:64:8d:be:eb:b9:5f:49:b9:09:fb:
                    5b:0d:f5:20:ee:de:1d:97:c9:33:d6:c4:ff:2d:ca:
                    29:88:82:c4:90:4a:e3:4a:bc:0f:60:1e:e1:f7:c6:
                    34:e8:31:56:9f:48:b1:74:fb:ee:c3:91:81:94:d1:
                    6d:ce:d0:b2:20:73:dc:2f:a8:6f:bc:f1:1e:47:cb:
                    4a:ba:21:6f:3e:ca:ad:ef:76:22:67:64:33:9b:47:
                    42:c5:c7:ef:9a:c1:20:f5:a6:64:f8:c9:1b:7e:67:
                    14:ad:f0:0e:44:62:df:7c:cc:2a:ff:bd:2d:af:ae:
                    01:ad:0f:f5:bb:e4:55:94:cd:c4:a8:1f:dc:22:f5:
                    a8:1c:cb:e5:65:1e:e5:26:72:ff:ab:83:24:31:4a:
                    96:f4:4c:0c:11:ef:3e:31:dc:12:2e:a2:12:3e:0a:
                    e3:b5:da:2d:ac:fe:86:14:04:77:cd:fa:49:0d:2b:
                    42:13
                Exponent: 65537 (0x10001)
        X509v3 extensions:
            X509v3 Basic Constraints: critical
                CA:TRUE
            X509v3 Subject Key Identifier: 
                2A:63:BA:63:ED:6C:30:E2:68:C7:5F:64:CA:3D:70:EC:9D:3D:74:2E
            X509v3 Key Usage: critical
                Certificate Sign, CRL Sign
    Signature Algorithm: sha256WithRSAEncryption
    Signature Value:
        72:c6:55:08:4d:52:39:4b:9e:e3:67:c0:cd:3f:38:81:7b:73:
        a9:24:bd:8d:d6:e5:cc:86:d2:8d:1c:9c:3b:4b:53:58:ed:69:
        bb:2a:08:96:20:da:05:e2:1b:16:24:51:78:ab:f4:c2:0d:d2:
        67:cf:36:bb:b8:22:46:25:58:39:84:75:2d:d9:2c:75:b0:24:
        b5:29:82:98:36:32:2c:4e:20:f3:4f:4c:e2:cb:6f:25:ef:8a:
        14:48:59:00:9e:08:af:67:c3:45:10:e6:60:9c:3e:b4:5c:5a:
        df:e3:86:e0:3a:55:a8:56:24:00:e5:0c:d7:1d:9d:89:de:79:
        4c:a7:80:ec:f3:d4:f9:79:bd:db:05:13:45:54:37:bc:d3:a4:
        ec:da:5c:5c:12:33:aa:15:33:08:76:1f:a2:64:0e:ab:db:d2:
        12:f5:fd:d4:ec:7e:51:a1:de:91:02:f9:8d:04:7d:5f:e4:67:
        4d:9f:55:bd:bf:ae:6f:98:ac:2f:91:b6:fc:b8:83:7d:20:e2:
        e7:b8:45:23:46:13:6c:04:27:b6:2e:19:37:59:df:55:da:50:
        f5:c6:9e:cb:9f:3f:31:e9:e1:2b:53:03:af:59:6c:5a:6e:bc:
        7f:52:7e:60:9d:19:87:5c:0c:ac:ad:29:63:17:2c:ae:2c:53:
        88:c0:eb:b2
-----BEGIN CERTIFICATE-----
MIIDDDCCAfSgAwIBAgIUNXbIx6JJCiR16Uw6Z+Wd82BJKZ0wDQYJKoZIhvcNAQEL
BQAwHjEcMBoGA1UEAwwTUVVJQyBTZXJ2ZXIgUm9vdCBDQTAeFw0yNTExMTIyMzIx
NTVaFw0yNTExMTUyMzIxNTVaMB4xHDAaBgNVBAMME1FVSUMgU2VydmVyIFJvb3Qg
Q0EwggEiMA0GCSqGSIb3DQEBAQUAA4IBDwAwggEKAoIBAQDF6M1hQVqA5fsdedWT
p8ckjZlMb5Mb/qna1BuVNVVB0EJwgshD9soOFyfhm9VC5tk9ZejcOs5ISSjXpYYf
Xc13jXu7X+dPUcetY7yw+zjwZI2+67lfSbkJ+1sN9SDu3h2XyTPWxP8tyimIgsSQ
SuNKvA9gHuH3xjToMVafSLF0++7DkYGU0W3O0LIgc9wvqG+88R5Hy0q6IW8+yq3v
diJnZDObR0LFx++awSD1pmT4yRt+ZxSt8A5EYt98zCr/vS2vrgGtD/W75FWUzcSo
H9wi9agcy+VlHuUmcv+rgyQxSpb0TAwR7z4x3BIuohI+CuO12i2s/oYUBHfN+kkN
K0ITAgMBAAGjQjBAMA8GA1UdEwEB/wQFMAMBAf8wHQYDVR0OBBYEFCpjumPtbDDi
aMdfZMo9cOydPXQuMA4GA1UdDwEB/wQEAwIBBjANBgkqhkiG9w0BAQsFAAOCAQEA
csZVCE1SOUue42fAzT84gXtzqSS9jdblzIbSjRycO0tTWO1puyoIliDaBeIbFiRR
eKv0wg3SZ882u7giRiVYOYR1LdksdbAktSmCmDYyLE4g809M4stvJe+KFEhZAJ4I
r2fDRRDmYJw+tFxa3+OG4DpVqFYkAOUM1x2did55TKeA7PPU+Xm92wUTRVQ3vNOk
7NpcXBIzqhUzCHYfomQOq9vSEvX91Ox+UaHekQL5jQR9X+RnTZ9Vvb+ub5isL5G2
/LiDfSDi57hFI0YTbAQnti4ZN1nfVdpQ9caey58/MenhK1MDr1lsWm68f1J+YJ0Z
h1wMrK0pYxcsrixTiMDrsg==
-----END CERTIFICATE-----
