Certificate:
    Data:
        Version: 3 (0x2)
        Serial Number: 1 (0x1)
        Signature Algorithm: sha256WithRSAEncryption
        Issuer: CN=QUIC Server Root CA
        Validity
            Not Before: Nov 12 23:21:55 2025 GMT
            Not After : Nov 15 23:21:55 2025 GMT
        Subject: C=US, ST=California, L=Mountain View, O=QUIC Server, CN=127.0.0.1
        Subject Public Key Info:
            Public Key Algorithm: rsaEncryption
                Public-Key: (2048 bit)
                Modulus:
                    00:c4:e8:8a:30:6a:d3:16:87:b4:60:88:f0:7d:cf:
                    50:8d:cd:a3:63:a0:09:71:80:1a:85:14:e8:e9:0a:
                    62:37:6c:36:7f:70:2b:f6:11:4b:08:9a:89:0d:46:
                    4c:75:39:c8:9c:c7:a9:a2:3a:b6:53:4d:55:1f:fb:
                    33:be:ed:95:51:de:a7:21:e3:46:c3:de:89:5a:a5:
                    6c:9f:c6:8f:71:18:3e:03:45:33:5f:b8:68:cf:0c:
                    5a:18:b0:54:fd:d1:42:7d:2c:8d:49:9c:c0:ef:74:
                    38:9a:f9:fd:69:b1:69:e9:0e:e2:ab:1e:8a:61:37:
                    e4:86:29:cd:f8:b5:c6:be:f4:e3:a6:95:f5:f0:09:
                    38:58:46:76:c3:bb:24:c4:be:3f:5b:b5:f4:d7:41:
                    c2:0f:73:32:61:33:e6:e4:4b:50:f3:9b:5e:7f:4a:
                    3e:4a:6f:10:81:0f:22:66:16:b0:38:0a:64:69:64:
                    72:34:87:af:c6:35:14:44:26:f3:75:bf:13:2b:60:
                    6c:1b:90:43:9f:ef:9f:b1:9b:b1:eb:55:02:cd:b0:
                    5f:bb:91:93:be:ea:e1:dd:67:ae:8b:37:13:e1:33:
                    97:40:5e:35:5f:63:0a:fc:34:d7:fb:dd:e2:db:b1:
                    71:2a:92:b7:3e:93:b0:ba:be:e0:d4:a9:42:49:56:
                    3c:f9
                Exponent: 65537 (0x10001)
        X509v3 extensions:
            X509v3 Basic Constraints: critical
                CA:FALSE
            X509v3 Subject Key Identifier: 
                22:79:55:04:BC:63:3C:68:81:67:CC:D2:4E:93:0B:9A:FF:9C:BB:F8
            X509v3 Authority Key Identifier: 
                2A:63:BA:63:ED:6C:30:E2:68:C7:5F:64:CA:3D:70:EC:9D:3D:74:2E
            X509v3 Extended Key Usage: 
                TLS Web Server Authentication, TLS Web Client Authentication
            X509v3 Subject Alternative Name: 
                DNS:www.example.org, DNS:mail.example.org, DNS:mail.example.com, IP Address:127.0.0.1
    Signature Algorithm: sha256WithRSAEncryption
    Signature Value:
        3a:8c:a2:4a:dc:8a:a2:d5:16:1b:8c:ed:61:8d:ce:0c:7a:2c:
        79:8b:be:3f:3d:21:87:34:7d:6c:72:b1:b0:0b:e3:e9:97:52:
        75:db:78:53:62:4c:64:cd:45:eb:38:f7:f8:50:90:99:ac:4e:
        bf:e9:fc:76:23:06:d4:3a:dd:c3:eb:f6:fb:f4:12:34:6b:3e:
        10:ee:02:fb:08:50:1b:19:3c:f6:ae:16:06:07:8d:1c:fc:c6:
        fe:a1:0a:f3:de:85:12:83:34:36:12:10:ae:bb:4e:6a:61:02:
        76:60:c4:a4:cf:75:42:d3:ac:86:31:6d:43:04:1c:33:74:5c:
        85:14:91:44:5a:44:37:58:f9:45:7f:42:12:de:19:10:1a:67:
        d5:62:6e:37:eb:b2:02:c1:40:2a:74:39:03:75:e3:9e:91:3d:
        1d:48:43:39:a5:ad:f7:c7:12:31:b9:da:e4:80:11:01:ae:81:
        9a:40:95:05:e7:fa:e2:54:5e:65:89:eb:8f:08:1d:a9:36:21:
        4b:80:df:b2:19:64:81:5a:0e:d7:76:14:1a:dc:aa:51:29:8b:
        96:1f:b4:00:72:50:d5:17:1c:6a:3a:76:75:24:a0:62:15:55:
        ac:31:a8:c7:ff:f5:35:5d:d5:2f:0c:29:7e:8f:7b:1b:a3:f9:
        98:09:9d:42
-----BEGIN CERTIFICATE-----
MIIDtDCCApygAwIBAgIBATANBgkqhkiG9w0BAQsFADAeMRwwGgYDVQQDDBNRVUlD
IFNlcnZlciBSb290IENBMB4XDTI1MTExMjIzMjE1NVoXDTI1MTExNTIzMjE1NVow
ZDELMAkGA1UEBhMCVVMxEzARBgNVBAgMCkNhbGlmb3JuaWExFjAUBgNVBAcMDU1v
dW50YWluIFZpZXcxFDASBgNVBAoMC1FVSUMgU2VydmVyMRIwEAYDVQQDDAkxMjcu
MC4wLjEwggEiMA0GCSqGSIb3DQEBAQUAA4IBDwAwggEKAoIBAQDE6IowatMWh7Rg
iPB9z1CNzaNjoAlxgBqFFOjpCmI3bDZ/cCv2EUsImokNRkx1Ocicx6miOrZTTVUf
+zO+7ZVR3qch40bD3olapWyfxo9xGD4DRTNfuGjPDFoYsFT90UJ9LI1JnMDvdDia
+f1psWnpDuKrHophN+SGKc34tca+9OOmlfXwCThYRnbDuyTEvj9btfTXQcIPczJh
M+bkS1Dzm15/Sj5KbxCBDyJmFrA4CmRpZHI0h6/GNRREJvN1vxMrYGwbkEOf75+x
m7HrVQLNsF+7kZO+6uHdZ66LNxPhM5dAXjVfYwr8NNf73eLbsXEqkrc+k7C6vuDU
qUJJVjz5AgMBAAGjgbYwgbMwDAYDVR0TAQH/BAIwADAdBgNVHQ4EFgQUInlVBLxj
PGiBZ8zSTpMLmv+cu/gwHwYDVR0jBBgwFoAUKmO6Y+1sMOJox19kyj1w7J09dC4w
HQYDVR0lBBYwFAYIKwYBBQUHAwEGCCsGAQUFBwMCMEQGA1UdEQQ9MDuCD3d3dy5l
eGFtcGxlLm9yZ4IQbWFpbC5leGFtcGxlLm9yZ4IQbWFpbC5leGFtcGxlLmNvbYcE
fwAAATANBgkqhkiG9w0BAQsFAAOCAQEAOoyiStyKotUWG4ztYY3ODHoseYu+Pz0h
hzR9bHKxsAvj6ZdSddt4U2JMZM1F6zj3+FCQmaxOv+n8diMG1Drdw+v2+/QSNGs+
EO4C+whQGxk89q4WBgeNHPzG/qEK896FEoM0NhIQrrtOamECdmDEpM91QtOshjFt
QwQcM3RchRSRRFpEN1j5RX9CEt4ZEBpn1WJuN+uyAsFAKnQ5A3XjnpE9HUhDOaWt
98cSMbna5IARAa6BmkCVBef64lReZYnrjwgdqTYhS4DfshlkgVoO13YUGtyqUSmL
lh+0AHJQ1Rccajp2dSSgYhVVrDGox//1NV3VLwwpfo97G6P5mAmdQg==
-----END CERTIFICATE-----
